target datalayout = "e-m:e-p270:32:32-p271:32:32-p272:64:64-i64:64-i128:128-f80:128-n8:16:32:64-S128"
target triple = "x86_64-pc-linux-gnu"

%"class.rocksdb::TraceRecordResult" = type <{ ptr, i8, [7 x i8] }>
%"class.rocksdb::TraceExecutionResult" = type { %"class.rocksdb::TraceRecordResult.base", i64, i64 }
%"class.rocksdb::TraceRecordResult.base" = type <{ ptr, i8 }>

@_ZTVN7rocksdb17TraceRecordResultE = unnamed_addr constant { [6 x ptr] } { [6 x ptr] [ptr null, ptr null, ptr @_ZN7rocksdb17TraceRecordResultD2Ev, ptr @_ZN7rocksdb17TraceRecordResultD0Ev, ptr @_ZNK7rocksdb17TraceRecordResult12GetTraceTypeEv, ptr @__cxa_pure_virtual] }, align 8

; Function Attrs: mustprogress nounwind uwtable
define void @_ZN7rocksdb17TraceRecordResultC2ENS_9TraceTypeE(ptr noundef nonnull align 8 dereferenceable(9) %0, i8 noundef signext %1) unnamed_addr #0 align 2 {
  %3 = alloca ptr, align 8
  %4 = alloca i8, align 1
  store ptr %0, ptr %3, align 8, !tbaa !4
  store i8 %1, ptr %4, align 1, !tbaa !9
  %5 = load ptr, ptr %3, align 8
  store ptr getelementptr inbounds inrange(-16, 32) ({ [6 x ptr] }, ptr @_ZTVN7rocksdb17TraceRecordResultE, i32 0, i32 0, i32 2), ptr %5, align 8, !tbaa !11
  %6 = getelementptr inbounds nuw %"class.rocksdb::TraceRecordResult", ptr %5, i32 0, i32 1
  %7 = load i8, ptr %4, align 1, !tbaa !9
  store i8 %7, ptr %6, align 8, !tbaa !13
  ret void
}

; Function Attrs: mustprogress nounwind uwtable
define void @_ZN7rocksdb20TraceExecutionResultC2EmmNS_9TraceTypeE(ptr noundef nonnull align 8 dereferenceable(32) %0, i64 noundef %1, i64 noundef %2, i8 noundef signext %3) unnamed_addr #0 align 2 {
  %5 = alloca ptr, align 8
  %6 = alloca i64, align 8
  %7 = alloca i64, align 8
  %8 = alloca i8, align 1
  store ptr %0, ptr %5, align 8, !tbaa !15
  store i64 %1, ptr %6, align 8, !tbaa !17
  store i64 %2, ptr %7, align 8, !tbaa !17
  store i8 %3, ptr %8, align 1, !tbaa !9
  %9 = load ptr, ptr %5, align 8
  %10 = load i8, ptr %8, align 1, !tbaa !9
  call void @_ZN7rocksdb17TraceRecordResultC2ENS_9TraceTypeE(ptr noundef nonnull align 8 dereferenceable(9) %9, i8 noundef signext %10)
  store ptr getelementptr inbounds inrange(-16, 48) ({ [8 x ptr] }, ptr @_ZTVN7rocksdb20TraceExecutionResultE, i32 0, i32 0, i32 2), ptr %9, align 8, !tbaa !11
  %11 = getelementptr inbounds nuw %"class.rocksdb::TraceExecutionResult", ptr %9, i32 0, i32 1
  %12 = load i64, ptr %6, align 8, !tbaa !17
  store i64 %12, ptr %11, align 8, !tbaa !19
  %13 = getelementptr inbounds nuw %"class.rocksdb::TraceExecutionResult", ptr %9, i32 0, i32 2
  %14 = load i64, ptr %7, align 8, !tbaa !17
  store i64 %14, ptr %13, align 8, !tbaa !21
  ret void
}