; Function Attrs: mustprogress nofree norecurse nosync nounwind willreturn memory(argmem: write) uwtable
define void @_ZN7rocksdb20TraceExecutionResultC2EmmNS_9TraceTypeE(ptr noundef nonnull writeonly align 8 captures(none) dereferenceable(32) initializes((0, 9), (16, 32)) %0, i64 noundef %1, i64 noundef %2, i8 noundef signext %3) unnamed_addr #0 align 2 {
  %5 = getelementptr inbounds nuw i8, ptr %0, i64 8
  store i8 %3, ptr %5, align 8, !tbaa !7
  store ptr getelementptr inbounds nuw inrange(-16, 48) (i8, ptr @_ZTVN7rocksdb20TraceExecutionResultE, i64 16), ptr %0, align 8, !tbaa !4
  %6 = getelementptr inbounds nuw i8, ptr %0, i64 16
  store i64 %1, ptr %6, align 8, !tbaa !11
  %7 = getelementptr inbounds nuw i8, ptr %0, i64 24
  store i64 %2, ptr %7, align 8, !tbaa !14
  ret void
}